target datalayout = "e-m:e-p270:32:32-p271:32:32-p272:64:64-i64:64-i128:128-f80:128-n8:16:32:64-S128"
target triple = "x86_64-pc-linux-gnu"

@.str.53 = private unnamed_addr constant [9 x i8] c"data.txt\00", align 1
@.str.54 = private unnamed_addr constant [2 x i8] c"r\00", align 1
@.str.55 = private unnamed_addr constant [35 x i8] c"Input file \22%s\22 cannot be opened.\0A\00", align 1
@.str.56 = private unnamed_addr constant [4 x i8] c"xxx\00", align 1
@.str.57 = private unnamed_addr constant [4 x i8] c"yyy\00", align 1
@.str.58 = private unnamed_addr constant [4 x i8] c"zzz\00", align 1
@.str.59 = private unnamed_addr constant [14 x i8] c"Total = %.2f\0A\00", align 1

; Function Attrs: nounwind uwtable
define void @Gia_ComputeTest() #0 {
  %1 = alloca ptr, align 8
  %2 = alloca [1000 x i8], align 16
  %3 = alloca float, align 4
  %4 = alloca ptr, align 8
  %5 = alloca ptr, align 8
  store float 0.000000e+00, ptr %3, align 4
  store ptr @.str.53, ptr %4, align 8
  %6 = load ptr, ptr %4, align 8
  %7 = call noalias ptr @fopen(ptr noundef %6, ptr noundef @.str.54)
  store ptr %7, ptr %5, align 8
  %8 = load ptr, ptr %5, align 8
  %9 = icmp eq ptr %8, null
  br i1 %9, label %10, label %13

10:                                               ; preds = %0
  %11 = load ptr, ptr %4, align 8
  %12 = call i32 (ptr, ...) @printf(ptr noundef @.str.55, ptr noundef %11)
  br label %50

13:                                               ; preds = %0
  br label %14

14:                                               ; preds = %35, %34, %28, %23, %13
  %15 = getelementptr inbounds [1000 x i8], ptr %2, i64 0, i64 0
  %16 = load ptr, ptr %5, align 8
  %17 = call ptr @fgets(ptr noundef %15, i32 noundef 1000, ptr noundef %16)
  %18 = icmp ne ptr %17, null
  br i1 %18, label %19, label %44

19:                                               ; preds = %14
  %20 = getelementptr inbounds [1000 x i8], ptr %2, i64 0, i64 0
  %21 = call ptr @strstr(ptr noundef %20, ptr noundef @.str.56) #12
  %22 = icmp ne ptr %21, null
  br i1 %22, label %24, label %23

23:                                               ; preds = %19
  br label %14, !llvm.loop !109

24:                                               ; preds = %19
  %25 = getelementptr inbounds [1000 x i8], ptr %2, i64 0, i64 0
  %26 = call ptr @strstr(ptr noundef %25, ptr noundef @.str.57) #12
  %27 = icmp ne ptr %26, null
  br i1 %27, label %29, label %28

28:                                               ; preds = %24
  br label %14, !llvm.loop !109

29:                                               ; preds = %24
  %30 = getelementptr inbounds [1000 x i8], ptr %2, i64 0, i64 0
  %31 = call ptr @strstr(ptr noundef %30, ptr noundef @.str.58) #12
  store ptr %31, ptr %1, align 8
  %32 = load ptr, ptr %1, align 8
  %33 = icmp eq ptr %32, null
  br i1 %33, label %34, label %35

34:                                               ; preds = %29
  br label %14, !llvm.loop !109

35:                                               ; preds = %29
  %36 = load ptr, ptr %1, align 8
  %37 = getelementptr inbounds i8, ptr %36, i64 4
  %38 = call double @atof(ptr noundef %37) #12
  %39 = fneg double %38
  %40 = load float, ptr %3, align 4
  %41 = fpext float %40 to double
  %42 = fadd double %41, %39
  %43 = fptrunc double %42 to float
  store float %43, ptr %3, align 4
  br label %14, !llvm.loop !109

44:                                               ; preds = %14
  %45 = load float, ptr %3, align 4
  %46 = fpext float %45 to double
  %47 = call i32 (ptr, ...) @printf(ptr noundef @.str.59, double noundef %46)
  %48 = load ptr, ptr %5, align 8
  %49 = call i32 @fclose(ptr noundef %48)
  br label %50

50:                                               ; preds = %44, %10
  ret void
}