; Function Attrs: nofree nounwind uwtable
define void @Gia_ComputeTest() local_unnamed_addr #15 {
  %1 = alloca [1000 x i8], align 16
  %2 = tail call noalias ptr @fopen(ptr noundef nonnull @.str.53, ptr noundef nonnull @.str.54)
  %3 = icmp eq ptr %2, null
  br i1 %3, label %5, label %.preheader

.preheader:                                       ; preds = %0
  %4 = call ptr @fgets(ptr noundef nonnull %1, i32 noundef 1000, ptr noundef nonnull %2)
  %.not1214 = icmp eq ptr %4, null
  br i1 %.not1214, label %.outer._crit_edge, label %.lr.ph

5:                                                ; preds = %0
  %6 = tail call i32 (ptr, ...) @printf(ptr noundef nonnull dereferenceable(1) @.str.55, ptr noundef nonnull @.str.53)
  br label %24

7:                                                ; preds = %.lr.ph, %.backedge
  %8 = call ptr @strstr(ptr noundef nonnull dereferenceable(1) %1, ptr noundef nonnull dereferenceable(1) @.str.56) #37
  %.not10 = icmp eq ptr %8, null
  br i1 %.not10, label %.backedge, label %10

.backedge:                                        ; preds = %7, %10, %12
  %9 = call ptr @fgets(ptr noundef nonnull %1, i32 noundef 1000, ptr noundef nonnull %2)
  %.not = icmp eq ptr %9, null
  br i1 %.not, label %.outer._crit_edge, label %7, !llvm.loop !107

10:                                               ; preds = %7
  %11 = call ptr @strstr(ptr noundef nonnull dereferenceable(1) %1, ptr noundef nonnull dereferenceable(1) @.str.57) #37
  %.not11 = icmp eq ptr %11, null
  br i1 %.not11, label %.backedge, label %12

12:                                               ; preds = %10
  %13 = call ptr @strstr(ptr noundef nonnull dereferenceable(1) %1, ptr noundef nonnull dereferenceable(1) @.str.58) #37
  %14 = icmp eq ptr %13, null
  br i1 %14, label %.backedge, label %.outer

.outer:                                           ; preds = %12
  %15 = getelementptr inbounds nuw i8, ptr %13, i64 4
  %16 = call double @atof(ptr noundef nonnull %15) #37
  %17 = fpext float %.0.ph15 to double
  %18 = fsub double %17, %16
  %19 = fptrunc double %18 to float
  %20 = call ptr @fgets(ptr noundef nonnull %1, i32 noundef 1000, ptr noundef nonnull %2)
  %.not12 = icmp eq ptr %20, null
  br i1 %.not12, label %.outer._crit_edge, label %.lr.ph, !llvm.loop !107

.lr.ph:                                           ; preds = %.preheader, %.outer
  %.0.ph15 = phi float [ %19, %.outer ], [ 0.000000e+00, %.preheader ]
  br label %7

.outer._crit_edge:                                ; preds = %.outer, %.backedge, %.preheader
  %.0.ph.lcssa = phi float [ 0.000000e+00, %.preheader ], [ %.0.ph15, %.backedge ], [ %19, %.outer ]
  %21 = fpext float %.0.ph.lcssa to double
  %22 = call i32 (ptr, ...) @printf(ptr noundef nonnull dereferenceable(1) @.str.59, double noundef %21)
  %23 = call i32 @fclose(ptr noundef nonnull %2)
  br label %24

24:                                               ; preds = %.outer._crit_edge, %5
  ret void
}